; Function Attrs: nounwind uwtable
define internal fastcc void @lv_font_manager_add_path_core(ptr noundef %0, ptr noundef %1, ptr noundef %2, i1 noundef zeroext %3) unnamed_addr #0 {
  %5 = zext i1 %3 to i8
  %.not = icmp eq ptr %0, null
  br i1 %.not, label %.preheader, label %6

.preheader:                                       ; preds = %4, %.preheader
  br label %.preheader

6:                                                ; preds = %4
  %.not33 = icmp eq ptr %1, null
  br i1 %.not33, label %.preheader41, label %7

.preheader41:                                     ; preds = %6, %.preheader41
  br label %.preheader41

7:                                                ; preds = %6
  %.not34 = icmp eq ptr %2, null
  br i1 %.not34, label %.preheader42, label %8

.preheader42:                                     ; preds = %7, %.preheader42
  br label %.preheader42

8:                                                ; preds = %7
  %9 = getelementptr inbounds nuw i8, ptr %0, i64 48
  %10 = tail call ptr @lv_ll_get_head(ptr noundef nonnull %9) #5
  %.not10.i = icmp eq ptr %10, null
  br i1 %.not10.i, label %lv_font_manager_get_path.exit.thread, label %.lr.ph.i

.lr.ph.i:                                         ; preds = %8, %14
  %.011.i = phi ptr [ %15, %14 ], [ %10, %8 ]
  %11 = load ptr, ptr %.011.i, align 8, !tbaa !18
  %12 = tail call i32 @lv_strcmp(ptr noundef nonnull %1, ptr noundef %11) #5
  %13 = icmp eq i32 %12, 0
  br i1 %13, label %lv_font_manager_get_path.exit, label %14

14:                                               ; preds = %.lr.ph.i
  %15 = tail call ptr @lv_ll_get_next(ptr noundef nonnull %9, ptr noundef nonnull %.011.i) #5
  %.not.i = icmp eq ptr %15, null
  br i1 %.not.i, label %lv_font_manager_get_path.exit.thread, label %.lr.ph.i, !llvm.loop !21

lv_font_manager_get_path.exit:                    ; preds = %.lr.ph.i
  %16 = getelementptr inbounds nuw i8, ptr %.011.i, i64 8
  %17 = load ptr, ptr %16, align 8, !tbaa !19
  %.not35 = icmp eq ptr %17, null
  br i1 %.not35, label %lv_font_manager_get_path.exit.thread, label %37

lv_font_manager_get_path.exit.thread:             ; preds = %14, %8, %lv_font_manager_get_path.exit
  %18 = tail call ptr @lv_ll_ins_tail(ptr noundef nonnull %9) #5
  %.not36 = icmp eq ptr %18, null
  br i1 %.not36, label %.preheader43, label %19

.preheader43:                                     ; preds = %lv_font_manager_get_path.exit.thread, %.preheader43
  br label %.preheader43

19:                                               ; preds = %lv_font_manager_get_path.exit.thread
  %20 = getelementptr inbounds nuw i8, ptr %18, i64 16
  store i8 %5, ptr %20, align 8, !tbaa !13
  br i1 %3, label %21, label %23

21:                                               ; preds = %19
  store ptr %1, ptr %18, align 8, !tbaa !18
  %22 = getelementptr inbounds nuw i8, ptr %18, i64 8
  store ptr %2, ptr %22, align 8, !tbaa !19
  br label %37

23:                                               ; preds = %19
  %24 = tail call i64 @lv_strlen(ptr noundef nonnull %1) #5
  %25 = add i64 %24, 1
  %26 = and i64 %25, 4294967295
  %27 = tail call ptr @lv_malloc(i64 noundef %26) #5
  store ptr %27, ptr %18, align 8, !tbaa !18
  %.not37 = icmp eq ptr %27, null
  br i1 %.not37, label %.preheader44, label %28

.preheader44:                                     ; preds = %23, %.preheader44
  br label %.preheader44

28:                                               ; preds = %23
  %29 = tail call ptr @lv_memcpy(ptr noundef nonnull %27, ptr noundef nonnull %1, i64 noundef %26) #5
  %30 = tail call i64 @lv_strlen(ptr noundef nonnull %2) #5
  %31 = add i64 %30, 1
  %32 = and i64 %31, 4294967295
  %33 = tail call ptr @lv_malloc(i64 noundef %32) #5
  %34 = getelementptr inbounds nuw i8, ptr %18, i64 8
  store ptr %33, ptr %34, align 8, !tbaa !19
  %.not38 = icmp eq ptr %33, null
  br i1 %.not38, label %.preheader45, label %35

.preheader45:                                     ; preds = %28, %.preheader45
  br label %.preheader45

35:                                               ; preds = %28
  %36 = tail call ptr @lv_memcpy(ptr noundef nonnull %33, ptr noundef nonnull %2, i64 noundef %32) #5
  br label %37

37:                                               ; preds = %35, %21, %lv_font_manager_get_path.exit
  ret void
}